((lp1
(dp2
I1
F0.33333333333300003
sI5420
F0.33333333333300003
sI28342
F0.33333333333300003
sa(dp3
I49644
F1
sa(dp4
I30191
F1
sa(dp5
I3553
F0.5
sI36218
F0.5
sa(dp6
I101
F0.5
sI2613
F0.5
sa(dp7
I25295
F1
sa(dp8
I22654
F1
sa(dp9
I38307
F1
sa(dp10
I20818
F0.5
sI39084
F0.5
sa(dp11
I3553
F0.5
sI2687
F0.5
sa(dp12
I2753
F1
sa(dp13
I28810
F0.5
sI7612
F0.5
sa(dp14
I4434
F0.5
sI4147
F0.5
sa(dp15
I2664
F0.5
sI847
F0.5
sa(dp16
I12530
F1
sa(dp17
I3384
F0.5
sI25048
F0.5
sa(dp18
I44025
F0.33333333333300003
sI40068
F0.33333333333300003
sI48998
F0.33333333333300003
sa(dp19
I11234
F0.5
sI21797
F0.5
sa(dp20
I7884
F1
sa(dp21
I18456
F0.33333333333300003
sI29394
F0.33333333333300003
sI27723
F0.33333333333300003
sa(dp22
I8755
F1
sa(dp23
I47335
F1
sa(dp24
I4770
F0.5
sI3294
F0.5
sa(dp25
I34621
F0.5
sI13063
F0.5
sa(dp26
I20802
F1
sa(dp27
I6363
F1
sa(dp28
I12838
F1
sa(dp29
I38206
F1
sa(dp30
I25295
F1
sa(dp31
I14276
F1
sa(dp32
I24104
F1
sa(dp33
I27642
F1
sa(dp34
I9409
F1
sa(dp35
I1752
F0.33333333333300003
sI4976
F0.33333333333300003
sI3059
F0.33333333333300003
sa(dp36
I28369
F1
sa(dp37
I27642
F1
sa(dp38
I20802
F1
sa(dp39
I881
F0.5
sI767
F0.5
sa(dp40
I47787
F1
sa(dp41
I25295
F1
sa(dp42
I90
F0.5
sI2789
F0.5
sa(dp43
I22251
F1
sa(dp44
I15306
F1
sa(dp45
I2861
F0.5
sI5703
F0.5
sa(dp46
I6711
F1
sa(dp47
I7073
F0.5
sI12121
F0.5
sa(dp48
I12194
F1
sa(dp49
I13063
F1
sa(dp50
I28369
F1
sa(dp51
I5484
F0.5
sI10694
F0.5
sa(dp52
I35136
F1
sa(dp53
I20992
F0.5
sI53508
F0.5
sa(dp54
I2874
F0.33333333333300003
sI56967
F0.33333333333300003
sI5599
F0.33333333333300003
sa(dp55
I56582
F1
sa(dp56
I3280
F0.25
sI90
F0.25
sI2789
F0.25
sI631
F0.25
sa(dp57
I45223
F1
sa(dp58
I16073
F0.5
sI17939
F0.5
sa(dp59
I50598
F1
sa(dp60
I13560
F0.5
sI17098
F0.5
sa(dp61
I23992
F0.5
sI17596
F0.5
sa(dp62
I59601
F1
sa(dp63
I11610
F0.5
sI15438
F0.5
sa(dp64
I6210
F1
sa(dp65
I18399
F0.5
sI5679
F0.5
sa(dp66
I41948
F1
sa(dp67
I31720
F0.5
sI4438
F0.5
sa(dp68
I50105
F1
sa(dp69
I21870
F1
sa(dp70
I12194
F1
sa(dp71
I1489
F0.33333333333300003
sI947
F0.33333333333300003
sI190
F0.33333333333300003
sa(dp72
I13063
F1
sa(dp73
I5712
F0.33333333333300003
sI3722
F0.33333333333300003
sI1739
F0.33333333333300003
sa(dp74
I58969
F1
sa(dp75
I2092
F0.5
sI9719
F0.5
sa(dp76
I47038
F1
sa(dp77
I18
F0.25
sI1755
F0.25
sI1132
F0.25
sI2282
F0.25
sa(dp78
I387
F0.5
sI23174
F0.5
sa(dp79
I932
F0.33333333333300003
sI493
F0.33333333333300003
sI1533
F0.33333333333300003
sa(dp80
I1
F0.33333333333300003
sI40070
F0.33333333333300003
sI4919
F0.33333333333300003
sa(dp81
I4770
F0.33333333333300003
sI1171
F0.33333333333300003
sI5679
F0.33333333333300003
sa(dp82
I22728
F1
sa(dp83
I22798
F1
sa(dp84
I28913
F1
sa(dp85
I49350
F1
sa(dp86
I44289
F0.5
sI4158
F0.5
sa(dp87
I38910
F0.5
sI38527
F0.5
sa(dp88
I3499
F0.5
sI33788
F0.5
sa(dp89
I3781
F0.5
sI34525
F0.5
sa(dp90
I7920
F1
sa(dp91
I39210
F1
sa(dp92
I50105
F1
sa(dp93
I26279
F1
sa(dp94
I22654
F1
sa(dp95
I22251
F1
sa(dp96
I51054
F1
sa(dp97
I23174
F1
sa(dp98
I27642
F1
sa(dp99
I39034
F1
sa(dp100
I37605
F0.5
sI2127
F0.5
sa(dp101
I7942
F1
sa(dp102
I2540
F1
sa(dp103
I4738
F0.5
sI4510
F0.5
sa(dp104
I19280
F1
sa(dp105
I512
F0.33333333333300003
sI28369
F0.33333333333300003
sI5122
F0.33333333333300003
sa(dp106
I42002
F1
sa(dp107
I19313
F0.5
sI18226
F0.5
sa(dp108
I50923
F1
sa(dp109
I6432
F1
sa(dp110
I40096
F0.5
sI38573
F0.5
sa(dp111
I59557
F1
sa(dp112
I31696
F0.5
sI9818
F0.5
sa(dp113
I15514
F1
sa(dp114
I22521
F1
sa(dp115
I4594
F0.5
sI5526
F0.5
sa(dp116
I7073
F0.5
sI4138
F0.5
sa(dp117
I40030
F1
sa(dp118
I12047
F1
sa(dp119
I13073
F1
sa(dp120
I21229
F0.5
sI13111
F0.5
sa(dp121
I5482
F0.33333333333300003
sI1173
F0.33333333333300003
sI50327
F0.33333333333300003
sa(dp122
I20744
F0.5
sI50327
F0.5
sa(dp123
I4929
F0.25
sI2290
F0.25
sI2787
F0.25
sI5100
F0.25
sa(dp124
I5145
F0.33333333333300003
sI2610
F0.33333333333300003
sI862
F0.33333333333300003
sa(dp125
I9251
F0.5
sI13742
F0.5
sa(dp126
I888
F1
sa(dp127
I4261
F1
sa(dp128
I90
F0.5
sI2789
F0.5
sa(dp129
I54884
F1
sa(dp130
I2279
F1
sa(dp131
I28633
F0.5
sI13839
F0.5
sa(dp132
I18530
F1
sa(dp133
I38273
F1
sa(dp134
I12194
F1
sa(dp135
I28369
F1
sa(dp136
I20818
F0.5
sI39084
F0.5
sa(dp137
I15823
F1
sa(dp138
I37169
F0.5
sI22252
F0.5
sa(dp139
I56260
F1
sa(dp140
I51686
F1
sa(dp141
I1232
F0.25
sI90
F0.25
sI2789
F0.25
sI3842
F0.25
sa(dp142
I48753
F1
sa(dp143
I947
F0.33333333333300003
sI4541
F0.33333333333300003
sI1903
F0.33333333333300003
sa(dp144
I7073
F0.5
sI4138
F0.5
sa(dp145
I713
F0.5
sI4998
F0.5
sa(dp146
I1171
F0.5
sI5679
F0.5
sa(dp147
I15438
F1
sa(lp148
(dp149
I4096
I1
sI2241
I1
sI4066
I1
sI2180
I1
sI12
I1
sI3311
I1
sI2589
I1
sa(dp150
I160
I1
sI690
I1
sI1806
I1
sI3478
I1
sI223
I1
sa(dp151
I2939
I1
sI1367
I1
sa(dp152
I500
I1
sI4076
I1
sI3406
I1
sI3430
I1
sI863
I1
sa(dp153
I4257
I1
sI2115
I1
sI2116
I1
sI2198
I1
sI2625
I1
sI3921
I1
sI2197
I1
sI2934
I1
sI1593
I1
sI2362
I1
sI2139
I1
sa(dp154
I257
I1
sI2306
I1
sI4489
I1
sI279
I1
sI24
I1
sI4763
I1
sI5022
I1
sI418
I1
sI168
I1
sI4523
I1
sI4012
I1
sI301
I1
sI4654
I1
sI4277
I1
sI4278
I1
sI4921
I1
sI189
I1
sI320
I1
sI4548
I1
sI5046
I1
sI716
I1
sI4813
I1
sI4173
I1
sI4433
I1
sI2386
I1
sI344
I1
sI2278
I1
sI3431
I1
sI4331
I1
sI2898
I1
sI4462
I1
sI4983
I1
sI1660
I1
sI4221
I1
sI2814
I1
sI3583
I1
sa(dp155
I4586
I1
sI2851
I1
sI2437
I1
sI2790
I1
sI2737
I1
sI274
I1
sI3181
I1
sI4237
I1
sI3821
I1
sI1880
I1
sI3800
I1
sI754
I1
sI3635
I1
sI1492
I1
sI1304
I1
sI1305
I1
sI4189
I1
sa(dp156
I2981
I1
sI2850
I1
sI2790
I1
sI2438
I1
sI3815
I1
sI274
I1
sI1880
I1
sI3800
I1
sI3602
I1
sI3603
I1
sI1654
I1
sI2553
I1
sI3973
I1
sI2713
I1
sI3999
I1
sI2236
I1
sI3174
I1
sI1918
I1
sI1349
I1
sa(dp157
I416
I1
sI1057
I1
sI1762
I1
sI1763
I1
sI4929
I1
sI2184
I1
sI4973
I1
sI256
I1
sI1878
I1
sI1847
I1
sI1368
I1
sI1626
I1
sI4316
I1
sI3002
I1
sI1086
I1
sI4991
I1
sa(dp158
I3360
I1
sI3329
I1
sI835
I1
sI3250
I1
sI4999
I1
sI488
I1
sI556
I1
sI4076
I1
sI3309
I1
sI3181
I1
sI945
I1
sI1906
I1
sI947
I1
sI441
I1
sI4623
I1
sa(dp159
I353
I1
sI354
I1
sI740
I1
sI748
I1
sI556
I1
sI750
I1
sI4623
I1
sI751
I1
sI4543
I1
sa(dp160
I4352
I1
sI1027
I1
sI3846
I1
sI1291
I1
sI4113
I1
sI658
I1
sI919
I1
sI1688
I1
sI1183
I1
sI161
I1
sI1058
I1
sI1203
I1
sI671
I1
sI4414
I1
sI2368
I1
sI1985
I1
sI2882
I1
sI3909
I1
sI199
I1
sI3787
I1
sI2892
I1
sI1357
I1
sI4435
I1
sI473
I1
sI1627
I1
sI4577
I1
sI3811
I1
sI357
I1
sI747
I1
sI3699
I1
sI1524
I1
sI1526
I1
sa(dp161
I675
I1
sI127
I1
sa(dp162
I5000
I1
sI2890
I1
sa(dp163
I609
I1
sI1218
I1
sI611
I1
sI4324
I1
sI4328
I1
sI138
I1
sI557
I1
sI4187
I1
sI2846
I1
sa(dp164
I3022
I1
sI3651
I1
sI4701
I1
sI662
I1
sa(dp165
I4482
I1
sI4969
I1
sI4847
I1
sI313
I1
sI4794
I1
sI3485
I1
sa(dp166
I323
I1
sI1541
I1
sI746
I1
sI4172
I1
sI4307
I1
sI1687
I1
sI284
I1
sI1566
I1
sa(dp167
I3456
I1
sI4994
I1
sI7
I1
sI3082
I1
sI4881
I1
sI4629
I1
sI4252
I1
sI4253
I1
sI3513
I1
sI4541
I1
sI1575
I1
sI2990
I1
sI4537
I1
sI4538
I1
sI4539
I1
sI1469
I1
sI4543
I1
sI3653
I1
sI4793
I1
sI4557
I1
sI4301
I1
sI4176
I1
sI3539
I1
sI2903
I1
sI353
I1
sI354
I1
sI488
I1
sI745
I1
sI1261
I1
sI1262
I1
sI1263
I1
sI626
I1
sI4731
I1
sa(dp168
I928
I1
sI4795
I1
sI902
I1
sI2855
I1
sI1692
I1
sI3434
I1
sI3532
I1
sI1645
I1
sI4466
I1
sI4851
I1
sI1683
I1
sI2645
I1
sI3414
I1
sI2393
I1
sI2810
I1
sI2811
I1
sI4442
I1
sI410
I1
sI2431
I1
sa(dp169
I1348
I1
sI2829
I1
sI3601
I1
sI3602
I1
sI3603
I1
sI2302
I1
sI1654
I1
sI667
I1
sI1917
I1
sI3070
I1
sa(dp170
I1537
I1
sI3461
I1
sI4239
I1
sI4243
I1
sI665
I1
sI666
I1
sI4271
I1
sI801
I1
sI1701
I1
sI3499
I1
sI44
I1
sI4398
I1
sI815
I1
sI2098
I1
sI4531
I1
sI1589
I1
sI1980
I1
sI4160
I1
sI709
I1
sI209
I1
sI3154
I1
sI1493
I1
sI2010
I1
sI4945
I1
sI2155
I1
sI1519
I1
sI1520
I1
sI3442
I1
sI1781
I1
sI4474
I1
sI4475
I1
sI2684
I1
sa(dp171
I4610
I1
sI4229
I1
sI4230
I1
sI4231
I1
sI1162
I1
sI3083
I1
sI5006
I1
sI4753
I1
sI660
I1
sI1561
I1
sI408
I1
sI409
I1
sI1052
I1
sI1053
I1
sI3488
I1
sI1185
I1
sI2502
I1
sI3760
I1
sI1073
I1
sI562
I1
sI2227
I1
sI949
I1
sI3317
I1
sI960
I1
sI1163
I1
sI4422
I1
sI3270
I1
sI1992
I1
sI2505
I1
sI970
I1
sI971
I1
sI972
I1
sI973
I1
sI1232
I1
sI4562
I1
sI2643
I1
sI986
I1
sI987
I1
sI1121
I1
sI968
I1
sI1383
I1
sI1384
I1
sI489
I1
sI3701
I1
sI3190
I1
sa(dp172
I256
I1
sI2306
I1
sI2307
I1
sI1930
I1
sI23
I1
sI2843
I1
sI2844
I1
sI4264
I1
sI681
I1
sI47
I1
sI1713
I1
sI435
I1
sI116
I1
sI2367
I1
sI320
I1
sI966
I1
sI1735
I1
sI1736
I1
sI4305
I1
sI344
I1
sI2275
I1
sI1765
I1
sI2278
I1
sI849
I1
sI2152
I1
sI2548
I1
sI247
I1
sI1787
I1
sI1788
I1
sI2814
I1
sa(dp173
I2819
I1
sI4879
I1
sI2833
I1
sI3091
I1
sI3092
I1
sI1302
I1
sI2712
I1
sI4634
I1
sI4510
I1
sI928
I1
sI4900
I1
sI4261
I1
sI298
I1
sI2035
I1
sI823
I1
sI1340
I1
sI3141
I1
sI3142
I1
sI4809
I1
sI4810
I1
sI4811
I1
sI3277
I1
sI1871
I1
sI4432
I1
sI4570
I1
sI1744
I1
sI1762
I1
sI3171
I1
sI4325
I1
sI2918
I1
sI3308
I1
sI2673
I1
sI3219
I1
sI2548
I1
sI757
I1
sI118
I1
sI4727
I1
sI632
I1
sI2297
I1
sI506
I1
sI1194
I1
sI3071
I1
sa(dp174
I1219
I1
sI1220
I1
sI2950
I1
sI1127
I1
sI2761
I1
sI4586
I1
sI1703
I1
sI2638
I1
sI1176
I1
sI275
I1
sI662
I1
sI1304
I1
sI2436
I1
sI1883
I1
sa(dp175
I1024
I1
sI1153
I1
sI516
I1
sI1037
I1
sI1038
I1
sI1039
I1
sI1040
I1
sI661
I1
sI512
I1
sI283
I1
sI1578
I1
sI682
I1
sI1327
I1
sI1718
I1
sI707
I1
sI2245
I1
sI2400
I1
sI2026
I1
sI1149
I1
sI2288
I1
sI3572
I1
sI634
I1
sI1706
I1
sI1150
I1
sI1151
I1
sa(dp176
I363
I1
sI4271
I1
sI2599
I1
sI3089
I1
sI2708
I1
sI593
I1
sI665
I1
sI666
I1
sI3099
I1
sI4508
I1
sI1953
I1
sI675
I1
sI1701
I1
sI3622
I1
sI167
I1
sI5034
I1
sI44
I1
sI3501
I1
sI4398
I1
sI815
I1
sI2353
I1
sI2098
I1
sI4531
I1
sI1589
I1
sI1980
I1
sI1727
I1
sI4785
I1
sI68
I1
sI709
I1
sI801
I1
sI5019
I1
sI4945
I1
sI3154
I1
sI1108
I1
sI1493
I1
sI612
I1
sI2010
I1
sI4319
I1
sI3424
I1
sI3297
I1
sI2916
I1
sI209
I1
sI2537
I1
sI2155
I1
sI2797
I1
sI3060
I1
sI2677
I1
sI4475
I1
sI2684
I1
sa(dp177
I257
I1
sI1666
I1
sI1899
I1
sI4489
I1
sI2306
I1
sI4433
I1
sI279
I1
sI24
I1
sI2585
I1
sI4763
I1
sI413
I1
sI5022
I1
sI417
I1
sI418
I1
sI4264
I1
sI4523
I1
sI4012
I1
sI301
I1
sI4654
I1
sI2224
I1
sI1713
I1
sI4277
I1
sI4278
I1
sI4920
I1
sI4921
I1
sI4924
I1
sI189
I1
sI320
I1
sI4548
I1
sI5046
I1
sI716
I1
sI4813
I1
sI4173
I1
sI4305
I1
sI2386
I1
sI344
I1
sI1500
I1
sI2278
I1
sI3431
I1
sI3132
I1
sI4331
I1
sI2898
I1
sI4462
I1
sI168
I1
sI4983
I1
sI3193
I1
sI1660
I1
sI4221
I1
sI2814
I1
sI3583
I1
sa(dp178
I3490
I1
sI4643
I1
sI2084
I1
sI4934
I1
sI2696
I1
sI3113
I1
sI1960
I1
sI116
I1
sI2969
I1
sI2939
I1
sI4445
I1
sa(dp179
I1920
I1
sI1800
I1
sI4107
I1
sI910
I1
sI1807
I1
sI2706
I1
sI2707
I1
sI278
I1
sI1943
I1
sI1178
I1
sI666
I1
sI802
I1
sI4003
I1
sI3622
I1
sI3623
I1
sI3624
I1
sI3501
I1
sI4270
I1
sI2622
I1
sI3803
I1
sI68
I1
sI3013
I1
sI3041
I1
sI3425
I1
sI2895
I1
sI2640
I1
sI338
I1
sI3799
I1
sI345
I1
sI3034
I1
sI911
I1
sI3424
I1
sI4705
I1
sI1253
I1
sI230
I1
sI252
I1
sI2922
I1
sI210
I1
sI3185
I1
sI4082
I1
sI4596
I1
sI4216
I1
sI3577
I1
sI3068
I1
sI4862
I1
sa(dp180
I4352
I1
sI4224
I1
sI130
I1
sI131
I1
sI132
I1
sI5
I1
sI3718
I1
sI4103
I1
sI264
I1
sI265
I1
sI2501
I1
sI148
I1
sI1685
I1
sI150
I1
sI1816
I1
sI285
I1
sI159
I1
sI290
I1
sI199
I1
sI300
I1
sI4143
I1
sI243
I1
sI310
I1
sI701
I1
sI629
I1
sI323
I1
sI2500
I1
sI325
I1
sI326
I1
sI327
I1
sI4172
I1
sI4302
I1
sI2000
I1
sI84
I1
sI218
I1
sI1501
I1
sI478
I1
sI182
I1
sI1120
I1
sI103
I1
sI4330
I1
sI749
I1
sI1137
I1
sI627
I1
sI244
I1
sI245
I1
sI763
I1
sI3964
I1
sI1541
I1
sa(dp181
I4362
I1
sI4363
I1
sI4750
I1
sI3985
I1
sI3986
I1
sI4248
I1
sI4250
I1
sI4013
I1
sI4146
I1
sI55
I1
sI2105
I1
sI194
I1
sI4035
I1
sI4037
I1
sI4168
I1
sI4170
I1
sI723
I1
sI4315
I1
sI3933
I1
sI3934
I1
sI4065
I1
sI3957
I1
sI4471
I1
sI4089
I1
sI3962
I1
sI4222
I1
sI4223
I1
sa(dp182
I4793
I1
sa(dp183
I4482
I1
sI4743
I1
sI140
I1
sI4878
I1
sI1039
I1
sI5013
I1
sI4892
I1
sI5028
I1
sI4645
I1
sI4646
I1
sI4337
I1
sI40
I1
sI4778
I1
sI4794
I1
sI4795
I1
sI1726
I1
sI4678
I1
sI2935
I1
sI356
I1
sI4969
I1
sI3825
I1
sI375
I1
sI4986
I1
sI4987
I1
sI4988
I1
sa(dp184
I4352
I1
sI4224
I1
sI131
I1
sI132
I1
sI5
I1
sI4103
I1
sI148
I1
sI150
I1
sI1816
I1
sI1541
I1
sI300
I1
sI310
I1
sI159
I1
sI323
I1
sI182
I1
sI4172
I1
sI4302
I1
sI2000
I1
sI84
I1
sI1120
I1
sI4330
I1
sI627
I1
sI244
I1
sI245
I1
sI252
I1
sa(dp185
I2819
I1
sI4879
I1
sI2833
I1
sI3091
I1
sI3092
I1
sI4634
I1
sI4510
I1
sI928
I1
sI4900
I1
sI2853
I1
sI298
I1
sI2035
I1
sI823
I1
sI3257
I1
sI3258
I1
sI3141
I1
sI3142
I1
sI4809
I1
sI4811
I1
sI3277
I1
sI1871
I1
sI4432
I1
sI4570
I1
sI1744
I1
sI1762
I1
sI3171
I1
sI4325
I1
sI2918
I1
sI3308
I1
sI2673
I1
sI3219
I1
sI2548
I1
sI757
I1
sI118
I1
sI4727
I1
sI632
I1
sI2297
I1
sI506
I1
sI1194
I1
sI3071
I1
sa(dp186
I514
I1
sI2695
I1
sI4488
I1
sI3468
I1
sI2325
I1
sI1191
I1
sI1192
I1
sI3114
I1
sI3116
I1
sI2350
I1
sI4552
I1
sI2229
I1
sI1341
I1
sI3143
I1
sI2504
I1
sI1491
I1
sI3796
I1
sI3160
I1
sI4697
I1
sI990
I1
sI3047
I1
sI3304
I1
sI3305
I1
sI3306
I1
sI4647
I1
sI4648
I1
sI3189
I1
sI2298
I1
sI1403
I1
sa(dp187
I131
I1
sI4357
I1
sI906
I1
sI17
I1
sI1298
I1
sI19
I1
sI1049
I1
sI924
I1
sI1669
I1
sI294
I1
sI3498
I1
sI427
I1
sI428
I1
sI4784
I1
sI2866
I1
sI2742
I1
sI311
I1
sI1597
I1
sI4288
I1
sI1356
I1
sI247
I1
sI1228
I1
sI333
I1
sI845
I1
sI1616
I1
sI1618
I1
sI1236
I1
sI2008
I1
sI4185
I1
sI3218
I1
sI3149
I1
sI1533
I1
sI2935
I1
sI3065
I1
sI4090
I1
sI1532
I1
sI1021
I1
sI1534
I1
sa(dp188
I257
I1
sI1666
I1
sI1899
I1
sI4489
I1
sI2306
I1
sI4433
I1
sI279
I1
sI24
I1
sI2585
I1
sI4763
I1
sI413
I1
sI5022
I1
sI417
I1
sI418
I1
sI4264
I1
sI4523
I1
sI4012
I1
sI301
I1
sI4654
I1
sI2224
I1
sI1713
I1
sI4277
I1
sI4278
I1
sI4920
I1
sI4921
I1
sI4924
I1
sI189
I1
sI320
I1
sI4548
I1
sI5046
I1
sI716
I1
sI4813
I1
sI4173
I1
sI4305
I1
sI2386
I1
sI344
I1
sI1500
I1
sI2278
I1
sI3431
I1
sI3132
I1
sI4331
I1
sI2898
I1
sI4462
I1
sI168
I1
sI4983
I1
sI3193
I1
sI1660
I1
sI4221
I1
sI2814
I1
sI3583
I1
sa(dp189
I1969
I1
sI3588
I1
sI2710
I1
sI3719
I1
sI2455
I1
sI2572
I1
sI2573
I1
sI2960
I1
sI2961
I1
sI2454
I1
sI3735
I1
sI3247
I1
sI1309
I1
sI3998
I1
sI1439
I1
sI1440
I1
sI2081
I1
sI3492
I1
sI817
I1
sI2728
I1
sI2729
I1
sI3079
I1
sI3246
I1
sI2607
I1
sI4912
I1
sI1457
I1
sI1438
I1
sI2103
I1
sI2489
I1
sI4669
I1
sI3008
I1
sI2251
I1
sI841
I1
sI842
I1
sI843
I1
sI2636
I1
sI2637
I1
sI2638
I1
sI13
I1
sI3280
I1
sI4561
I1
sI2391
I1
sI472
I1
sI3546
I1
sI2782
I1
sI4449
I1
sI2663
I1
sI4456
I1
sI1385
I1
sI1644
I1
sa(dp190
I3968
I1
sI3713
I1
sI3977
I1
sI778
I1
sI142
I1
sI529
I1
sI406
I1
sI1048
I1
sI1312
I1
sI4641
I1
sI1443
I1
sI2467
I1
sI4390
I1
sI296
I1
sI427
I1
sI1069
I1
sI3118
I1
sI2486
I1
sI1975
I1
sI4152
I1
sI1849
I1
sI351
I1
sI188
I1
sI1597
I1
sI3007
I1
sI3779
I1
sI2759
I1
sI1229
I1
sI3662
I1
sI848
I1
sI1491
I1
sI462
I1
sI4310
I1
sI4183
I1
sI3032
I1
sI985
I1
sI1503
I1
sI1377
I1
sI1123
I1
sI4967
I1
sI4469
I1
sI3309
I1
sI2931
I1
sI1534
I1
sI1404
I1
sI2558
I1
sa(dp191
I3202
I1
sI2565
I1
sI833
I1
sI648
I1
sI3265
I1
sI13
I1
sI4496
I1
sI151
I1
sI3610
I1
sI923
I1
sI161
I1
sI4514
I1
sI4515
I1
sI4262
I1
sI647
I1
sI1197
I1
sI3246
I1
sI559
I1
sI4403
I1
sI314
I1
sI699
I1
sI700
I1
sI61
I1
sI1217
I1
sI4546
I1
sI4038
I1
sI4552
I1
sI1874
I1
sI4180
I1
sI889
I1
sI4697
I1
sI94
I1
sI95
I1
sI96
I1
sI3937
I1
sI1256
I1
sI60
I1
sI3818
I1
sI3568
I1
sI888
I1
sI3796
I1
sI890
I1
sI4607
I1
sI1919
I1
sa(dp192
I4226
I1
sI4
I1
sI1547
I1
sI4876
I1
sI2575
I1
sI2587
I1
sI1564
I1
sI1548
I1
sI2856
I1
sI425
I1
sI3626
I1
sI940
I1
sI1581
I1
sI1582
I1
sI1583
I1
sI1584
I1
sI1587
I1
sI948
I1
sI949
I1
sI950
I1
sI1851
I1
sI3552
I1
sI1480
I1
sI1481
I1
sI1621
I1
sI1622
I1
sI1623
I1
sI1624
I1
sI1625
I1
sI1248
I1
sI4710
I1
sI4711
I1
sI4712
I1
sI1257
I1
sI1258
I1
sI4728
I1
sI1642
I1
sa(dp193
I3465
I1
sI2913
I1
sI34
I1
sI2531
I1
sI2532
I1
sI4617
I1
sI2135
I1
sI2514
I1
sI2702
I1
sI4855
I1
sI114
I1
sI35
I1
sI3797
I1
sI73
I1
sI2650
I1
sa(dp194
I3872
I1
sI4762
I1
sI4772
I1
sI4774
I1
sa(dp195
I384
I1
sI515
I1
sI3209
I1
sI3210
I1
sI1806
I1
sI387
I1
sI5013
I1
sI3478
I1
sI3867
I1
sI3868
I1
sI4385
I1
sI3526
I1
sI3885
I1
sI3886
I1
sI3887
I1
sI4530
I1
sI5044
I1
sI567
I1
sI4025
I1
sI4981
I1
sI3574
I1
sI3654
I1
sI2120
I1
sI1271
I1
sI590
I1
sI2640
I1
sI2897
I1
sI3155
I1
sI3925
I1
sI4857
I1
sI1637
I1
sI1638
I1
sI1130
I1
sI1131
I1
sI2036
I1
sI4597
I1
sI2038
I1
sI3703
I1
sI1017
I1
sI1019
I1
sa(dp196
I2306
I1
sI2307
I1
sI1930
I1
sI2317
I1
sI23
I1
sI2844
I1
sI2335
I1
sI1831
I1
sI4264
I1
sI681
I1
sI47
I1
sI116
I1
sI2367
I1
sI320
I1
sI966
I1
sI1735
I1
sI2121
I1
sI4305
I1
sI2275
I1
sI1765
I1
sI2278
I1
sI2152
I1
sI2413
I1
sI3312
I1
sI2548
I1
sI247
I1
sI1788
I1
sI2814
I1
sI2303
I1
sa(dp197
I4481
I1
sI4482
I1
sI4869
I1
sI4743
I1
sI1676
I1
sI4878
I1
sI5013
I1
sI4892
I1
sI5028
I1
sI4645
I1
sI4646
I1
sI4337
I1
sI4778
I1
sI4794
I1
sI4795
I1
sI1726
I1
sI4678
I1
sI140
I1
sI4969
I1
sI1261
I1
sI2542
I1
sI4847
I1
sI496
I1
sI3825
I1
sI375
I1
sI1272
I1
sI4986
I1
sI4987
I1
sI4988
I1
sI5034
I1
sa(dp198
I1248
I1
sI4898
I1
sI4164
I1
sI4166
I1
sI1353
I1
sI1847
I1
sI1367
I1
sI1261
I1
sI1263
I1
sI1264
I1
sI1368
I1
sI3347
I1
sI663
I1
sI664
I1
sI4826
I1
sI4827
I1
sI3772
I1
sa(dp199
I1025
I1
sI2823
I1
sI2824
I1
sI4140
I1
sI3338
I1
sI524
I1
sI2704
I1
sI4113
I1
sI2201
I1
sI1434
I1
sI4251
I1
sI2079
I1
sI4768
I1
sI289
I1
sI812
I1
sI4141
I1
sI176
I1
sI177
I1
sI1842
I1
sI307
I1
sI3510
I1
sI2377
I1
sI1524
I1
sI2876
I1
sI10
I1
sI199
I1
sI201
I1
sI3018
I1
sI4687
I1
sI215
I1
sI1627
I1
sI3984
I1
sI228
I1
sI3045
I1
sI4199
I1
sI3561
I1
sI237
I1
sI1007
I1
sI1139
I1
sI2932
I1
sI246
I1
sI3960
I1
sI3963
I1
sI1790
I1
sa(dp200
I1924
I1
sa(dp201
I529
I1
sI530
I1
sI3994
I1
sa(dp202
I4712
I1
sI362
I1
sI4876
I1
sI4461
I1
sI1584
I1
sI3445
I1
sI1623
I1
sI1657
I1
sI4413
I1
sa(dp203
I3588
I1
sI2710
I1
sI3719
I1
sI2455
I1
sI2572
I1
sI2573
I1
sI2960
I1
sI2961
I1
sI2454
I1
sI3735
I1
sI3247
I1
sI1309
I1
sI3998
I1
sI1439
I1
sI1440
I1
sI2081
I1
sI3492
I1
sI817
I1
sI2728
I1
sI2729
I1
sI3079
I1
sI3246
I1
sI2607
I1
sI4912
I1
sI1457
I1
sI1438
I1
sI2103
I1
sI2489
I1
sI4669
I1
sI3008
I1
sI2251
I1
sI841
I1
sI842
I1
sI843
I1
sI2636
I1
sI2637
I1
sI2638
I1
sI13
I1
sI3280
I1
sI4561
I1
sI2391
I1
sI472
I1
sI3546
I1
sI2782
I1
sI4449
I1
sI2663
I1
sI4456
I1
sI1385
I1
sI1644
I1
sa(dp204
I1025
I1
sI1029
I1
sI3841
I1
sI1290
I1
sI1419
I1
sI3984
I1
sI4758
I1
sI1585
I1
sI424
I1
sI1068
I1
sI3246
I1
sI2225
I1
sI4276
I1
sI62
I1
sI2368
I1
sI1990
I1
sI1484
I1
sI2639
I1
sI2782
I1
sI1250
I1
sI4710
I1
sI1896
I1
sI1004
I1
sI1006
I1
sI1648
I1
sI2420
I1
sI2421
I1
sI4605
I1
sI127
I1
sa(dp205
I864
I1
sI1632
I1
sI1602
I1
sI142
I1
sI4933
I1
sI945
I1
sI4257
I1
sI141
I1
sI750
I1
sI143
I1
sI1649
I1
sI1524
I1
sI1013
I1
sI1014
I1
sI1568
I1
sI1600
I1
sI572
I1
sa(dp206
I3330
I1
sI3724
I1
sI1551
I1
sI1552
I1
sI3090
I1
sI3241
I1
sI4423
I1
sI1971
I1
sI3252
I1
sI3899
I1
sI1348
I1
sI1349
I1
sI4039
I1
sI714
I1
sI1228
I1
sI3283
I1
sI1679
I1
sI995
I1
sI1509
I1
sI2792
I1
sI2156
I1
sI2003
I1
sI2302
I1
sa(dp207
I1960
I1
sI1959
I1
sI3364
I1
sI1671
I1
sa(dp208
I2272
I1
sI59
I1
sI774
I1
sI4359
I1
sI9
I1
sI4743
I1
sI3512
I1
sI3316
I1
sI1526
I1
sI2328
I1
sI4794
I1
sI4795
I1
sa(dp209
I452
I1
sI3686
I1
sI3687
I1
sI3765
I1
sI3318
I1
sI1117
I1
sa(dp210
I2176
I1
sI5024
I1
sI1027
I1
sI1137
I1
sI1161
I1
sI4352
I1
sI4144
I1
sI1233
I1
sI2194
I1
sI4115
I1
sI1876
I1
sI4041
I1
sI1183
I1
sI2045
I1
sI2175
I1
sa(dp211
I1401
I1
sI4940
I1
sI4941
I1
sI4892
I1
sI3121
I1
sa(dp212
I815
I1
sI2155
I1
sI1572
I1
sI1701
I1
sI593
I1
sI2797
I1
sI2537
I1
sI1493
I1
sI4107
I1
sI44
I1
sI1165
I1
sI4398
I1
sI4271
I1
sI4945
I1
sI2098
I1
sI5045
I1
sI589
I1
sI4785
I1
sI4475
I1
sI2238
I1
sI1781
I1
sa(dp213
I3712
I1
sI699
I1
sI3077
I1
sI4936
I1
sI2731
I1
sI1874
I1
sI4403
I1
sI94
I1
sI4697
I1
sI3162
I1
sI2747
I1
sI2845
I1
sI2590
I1
sa(dp214
I3200
I1
sI2520
I1
sI4206
I1
sI4127
I1
sI161
I1
sI4902
I1
sI3367
I1
sI1585
I1
sI1074
I1
sI2871
I1
sI3384
I1
sI314
I1
sI2104
I1
sI3410
I1
sI2519
I1
sI4696
I1
sI1497
I1
sI4698
I1
sI4443
I1
sI4454
I1
sI1126
I1
sI4333
I1
sI4334
I1
sI4335
I1
sI4336
I1
sI3698
I1
sI888
I1
sI889
I1
sI3199
I1
sa(dp215
I2176
I1
sI1927
I1
sI265
I1
sI398
I1
sI5024
I1
sI810
I1
sI1966
I1
sI2825
I1
sI834
I1
sI2891
I1
sI1485
I1
sI4561
I1
sI2137
I1
sI1253
I1
sI1002
I1
sI1004
I1
sI1137
I1
sI1138
I1
sI2421
I1
sI1271
I1
sI504
I1
sI2046
I1
sa(dp216
I116
I1
sI1634
I1
sI195
I1
sI4102
I1
sI4934
I1
sI4073
I1
sI4521
I1
sI5036
I1
sI3788
I1
sI1902
I1
sI4431
I1
sI4691
I1
sI4340
I1
sI3113
I1
sI2787
I1
sI3225
I1
sI3514
I1
sI2346
I1
sI3388
I1
sI2077
I1
sa(dp217
I3886
I1
sI4385
I1
sI1638
I1
sI3654
I1
sI3526
I1
sI3867
I1
sI3209
I1
sI3210
I1
sI3703
I1
sI3885
I1
sI590
I1
sI2640
I1
sI4025
I1
sI3155
I1
sI4597
I1
sI2038
I1
sI4857
I1
sI1017
I1
sI1019
I1
sI2979
I1
sI3925
I1
sa(dp218
I1350
I1
sI40
I1
sI374
I1
sI313
I1
sI3866
I1
sI411
I1
sI2141
I1
sa(dp219
I2306
I1
sI2275
I1
sI2278
I1
sI4264
I1
sI2844
I1
sI2814
I1
sI2335
I1
sa(dp220
I3520
I1
sI528
I1
sI2882
I1
sI2138
I1
sI2503
I1
sI3663
I1
sI848
I1
sI530
I1
sI3471
I1
sI1622
I1
sI1336
I1
sI2265
I1
sI2266
I1
sI4571
I1
sI2877
I1
sI4701
I1
sa(dp221
I3621
I1
sI3788
I1
sI4685
I1
sI2576
I1
sI4340
I1
sI2005
I1
sI3766
I1
sI4251
I1
sI4124
I1
sa(dp222
I140
I1
sI1461
I1
sI3416
I1
sI1081
I1
sI1565
I1
sI94
I1
sa(dp223
I4067
I1
sI2246
I1
sI313
I1
sI140
I1
sI2001
I1
sI2290
I1
sI1107
I1
sI1108
I1
sI374
I1
sI375
I1
sI2867
I1
sI411
I1
sI1084
I1
sI2141
I1
sI94
I1
sa(dp224
I387
I1
sI4263
I1
sI3209
I1
sI1035
I1
sI4625
I1
sI212
I1
sI1449
I1
sa(dp225
I2433
I1
sI1026
I1
sI1667
I1
sI3846
I1
sI775
I1
sI4494
I1
sI784
I1
sI1562
I1
sI1437
I1
sI2469
I1
sI943
I1
sI243
I1
sI1333
I1
sI2490
I1
sI1094
I1
sI1096
I1
sI1225
I1
sI1227
I1
sI2645
I1
sI1497
I1
sI4203
I1
sI4464
I1
sI4465
I1
sI3571
I1
sa(dp226
I297
I1
sI4730
I1
sI4731
I1
sa(dp227
I3040
I1
sI1321
I1
sI4706
I1
sI1350
I1
sI4911
I1
sa(dp228
I4229
I1
sI4230
I1
sI4231
I1
sI1162
I1
sI1163
I1
sI5006
I1
sI409
I1
sI408
I1
sI1561
I1
sI1052
I1
sI1053
I1
sI1185
I1
sI1073
I1
sI562
I1
sI2227
I1
sI2758
I1
sI1992
I1
sI970
I1
sI971
I1
sI973
I1
sI1232
I1
sI1383
I1
sI1384
I1
sI3190
I1
sa(dp229
I3465
I1
sI3205
I1
sa(dp230
I3459
I1
sI3845
I1
sI1549
I1
sI4495
I1
sI3
I1
sI2324
I1
sI2709
I1
sI4443
I1
sI4388
I1
sI4015
I1
sI4276
I1
sI4406
I1
sI4795
I1
sI3266
I1
sI1480
I1
sI1616
I1
sI3668
I1
sI2646
I1
sI603
I1
sI4064
I1
sI3175
I1
sI3305
I1
sI3179
I1
sI3180
I1
sI4335
I1
sI4739
I1
sI3958
I1
sI3197
I1
sI3838
I1
sa(dp231
I3205
I1
sI3206
I1
sI2407
I1
sI2409
I1
sI3182
I1
sI3120
I1
sa(dp232
I2184
I1
sI2570
I1
sI782
I1
sI2414
I1
sI5015
I1
sI4761
I1
sI2715
I1
sI3369
I1
sI4655
I1
sI2248
I1
sI2745
I1
sI3770
I1
sI3516
I1
sI3517
I1
sI2370
I1
sI2371
I1
sI3782
I1
sI72
I1
sI3274
I1
sI2511
I1
sI3157
I1
sI3418
I1
sI1373
I1
sI4320
I1
sI1891
I1
sI2794
I1
sI3437
I1
sI4974
I1
sI1267
I1
sa(dp233
I1123
I1
sI1229
I1
sI3662
I1
sI1069
I1
sI1048
I1
sI2467
I1
sI462
I1
sI4310
I1
sI1975
I1
sI4152
I1
sI4469
I1
sa(dp234
I3552
I1
sI3905
I1
sI4131
I1
sI425
I1
sI1258
I1
sI4587
I1
sI1584
I1
sI1624
I1
sI1623
I1
sI3445
I1
sI1257
I1
sI4728
I1
sI2751
I1
sa(dp235
I3978
I1
sI1291
I1
sI3088
I1
sI1557
I1
sI1186
I1
sI2469
I1
sI2347
I1
sI3764
I1
sI3765
I1
sI823
I1
sI2622
I1
sI3009
I1
sI976
I1
sI3669
I1
sI3037
I1
sI4837
I1
sI2144
I1
sI225
I1
sI1253
I1
sI3925
I1
sI1271
I1
sI1145
I1
sI3451
I1
sI1407
I1
sa(dp236
I3272
I1
sI3552
I1
sI3419
I1
sI2757
I1
sa(dp237
I1220
I1
sI2316
I1
sI2317
I1
sI4861
I1
sI3341
I1
sI957
I1
sI4830
I1
sI1695
I1
sa(dp238
I2179
I1
sI2134
I1
sI9
I1
sI524
I1
sI2191
I1
sI1686
I1
sI2590
I1
sI31
I1
sI752
I1
sI676
I1
sI3115
I1
sI1842
I1
sI2226
I1
sI4382
I1
sI695
I1
sI3265
I1
sI3017
I1
sI3018
I1
sI3019
I1
sI1359
I1
sI3537
I1
sI2518
I1
sI1118
I1
sI1505
I1
sI3045
I1
sI2279
I1
sI2024
I1
sI3383
I1
sI2544
I1
sI499
I1
sI3077
I1
sa(dp239
I2176
I1
sI2823
I1
sI1288
I1
sI265
I1
sI1290
I1
sI834
I1
sI398
I1
sI941
I1
sI1937
I1
sI942
I1
sI5024
I1
sI289
I1
sI677
I1
sI1959
I1
sI1961
I1
sI810
I1
sI1202
I1
sI1966
I1
sI1071
I1
sI1456
I1
sI4402
I1
sI4276
I1
sI2825
I1
sI3001
I1
sI961
I1
sI1986
I1
sI837
I1
sI2891
I1
sI1485
I1
sI4687
I1
sI4561
I1
sI983
I1
sI2137
I1
sI3292
I1
sI1376
I1
sI1253
I1
sI2961
I1
sI1002
I1
sI875
I1
sI1004
I1
sI4206
I1
sI1648
I1
sI1137
I1
sI1138
I1
sI2421
I1
sI1271
I1
sI504
I1
sI762
I1
sI2046
I1
sa(dp240
I385
I1
sI2821
I1
sI906
I1
sI907
I1
sI652
I1
sI141
I1
sI3090
I1
sI788
I1
sI277
I1
sI30
I1
sI4384
I1
sI3749
I1
sI3057
I1
sI297
I1
sI686
I1
sI4528
I1
sI563
I1
sI2235
I1
sI3394
I1
sI4803
I1
sI1988
I1
sI2121
I1
sI1997
I1
sI3668
I1
sI4579
I1
sI485
I1
sI619
I1
sI274
I1
sI4593
I1
sI756
I1
sI4884
I1
sI121
I1
sI3708
I1
sI383
I1
sa(dp241
I2436
I1
sI2437
I1
sI2950
I1
sI4237
I1
sI3181
I1
sI3800
I1
sI274
I1
sI1304
I1
sI1305
I1
sI2850
I1
sI2851
I1
sI2737
I1
sI3635
I1
sI4533
I1
sI439
I1
sI2616
I1
sI4287
I1
sI2760
I1
sI2829
I1
sI1492
I1
sI469
I1
sI1880
I1
sI3675
I1
sI4189
I1
sI3173
I1
sI2790
I1
sI1386
I1
sI3821
I1
sI754
I1
sI3702
I1
sI2171
I1
sI4586
I1
sI1918
I1
sa(dp242
I3968
I1
sI3713
I1
sI4469
I1
sI3977
I1
sI778
I1
sI142
I1
sI529
I1
sI406
I1
sI1048
I1
sI1312
I1
sI4641
I1
sI1443
I1
sI4390
I1
sI296
I1
sI427
I1
sI1069
I1
sI3118
I1
sI351
I1
sI1205
I1
sI2486
I1
sI1975
I1
sI4152
I1
sI1849
I1
sI1503
I1
sI188
I1
sI1597
I1
sI3007
I1
sI3779
I1
sI2759
I1
sI1229
I1
sI3662
I1
sI848
I1
sI1491
I1
sI462
I1
sI4310
I1
sI3032
I1
sI985
I1
sI607
I1
sI1377
I1
sI1123
I1
sI4967
I1
sI4968
I1
sI4075
I1
sI2467
I1
sI2931
I1
sI1534
I1
sI1404
I1
sI2558
I1
sa(dp243
I3712
I1
sI3202
I1
sI699
I1
sI2565
I1
sI2694
I1
sI833
I1
sI648
I1
sI3265
I1
sI13
I1
sI4121
I1
sI4633
I1
sI3610
I1
sI923
I1
sI2845
I1
sI4514
I1
sI4262
I1
sI4524
I1
sI1197
I1
sI559
I1
sI4403
I1
sI950
I1
sI2871
I1
sI2872
I1
sI2747
I1
sI60
I1
sI61
I1
sI1216
I1
sI1217
I1
sI4933
I1
sI4038
I1
sI4552
I1
sI1874
I1
sI4180
I1
sI4697
I1
sI3162
I1
sI898
I1
sI2147
I1
sI4455
I1
sI1256
I1
sI3818
I1
sI637
I1
sI4336
I1
sI1653
I1
sI888
I1
sI890
I1
sI381
I1
sI1919
I1
sa(dp244
I640
I1
sI129
I1
sI1667
I1
sI3847
I1
sI1547
I1
sI4494
I1
sI784
I1
sI1562
I1
sI1564
I1
sI1437
I1
sI2462
I1
sI3873
I1
sI4394
I1
sI775
I1
sI1585
I1
sI1333
I1
sI57
I1
sI2490
I1
sI575
I1
sI451
I1
sI1227
I1
sI2645
I1
sI1497
I1
sI3810
I1
sI2798
I1
sI4465
I1
sI1650
I1
sI250
I1
sI2431
I1
sa(dp245
I4352
I1
sI4224
I1
sI130
I1
sI131
I1
sI132
I1
sI5
I1
sI4103
I1
sI264
I1
sI265
I1
sI148
I1
sI150
I1
sI1816
I1
sI159
I1
sI290
I1
sI300
I1
sI4143
I1
sI310
I1
sI701
I1
sI629
I1
sI323
I1
sI325
I1
sI327
I1
sI4172
I1
sI4302
I1
sI2000
I1
sI84
I1
sI218
I1
sI182
I1
sI1120
I1
sI103
I1
sI4330
I1
sI749
I1
sI627
I1
sI244
I1
sI245
I1
sI3964
I1
sI1541
I1
sa(dp246
I1920
I1
sI1800
I1
sI2185
I1
sI3978
I1
sI1806
I1
sI912
I1
sI2193
I1
sI1554
I1
sI19
I1
sI1556
I1
sI278
I1
sI2328
I1
sI2329
I1
sI414
I1
sI415
I1
sI800
I1
sI2212
I1
sI1830
I1
sI3623
I1
sI3496
I1
sI1853
I1
sI1727
I1
sI1346
I1
sI464
I1
sI338
I1
sI3927
I1
sI1240
I1
sI2010
I1
sI91
I1
sI229
I1
sI2154
I1
sI4946
I1
sI1725
I1
sI3954
I1
sI2707
I1
sI4215
I1
sI121
I1
sI2300
I1
sI2942
I1
sI166
I1
sa(dp247
I4672
I1
sI4519
I1
sI4521
I1
sI5036
I1
sI1902
I1
sI3388
I1
sI4509
I1
sa(dp248
I2049
I1
sI2448
I1
sI3731
I1
sI4899
I1
sI4008
I1
sI4009
I1
sI3754
I1
sI3249
I1
sI184
I1
sI3644
I1
sI2493
I1
sI2499
I1
sI4688
I1
sI2005
I1
sI2524
I1
sI2525
I1
sI2541
I1
sI1904
I1
sI1905
I1
sI1779
I1
sI2171
I1
sI4010
I1
sa(dp249
I2448
I1
sa(dp250
I1889
I1
sI1826
I1
sI1860
I1
sI1861
I1
sI2024
I1
sI2133
I1
sI2134
I1
sa(dp251
I2689
I1
sI2050
I1
sI1796
I1
sI1797
I1
sI1804
I1
sI1188
I1
sI1189
I1
sI4525
I1
sI3763
I1
sI1716
I1
sI1715
I1
sI2232
I1
sI2618
I1
sI1717
I1
sI2499
I1
sI2888
I1
sI1746
I1
sI1747
I1
sI2132
I1
sI2524
I1
sI2401
I1
sI2402
I1
sI2021
I1
sI4178
I1
sI1777
I1
sI1778
I1
sI2813
I1
sa(dp252
I4482
I1
sI4987
I1
sI5028
I1
sI4645
I1
sI4646
I1
sI4743
I1
sI40
I1
sI4969
I1
sI4846
I1
sI4847
I1
sI4337
I1
sI4851
I1
sI4794
I1
sI4986
I1
sI3825
I1
sI4988
I1
sI5021
I1
sI4360
I1
sa(dp253
I2403
I1
sI1540
I1
sI1381
I1
sI1382
I1
sI2700
I1
sI3533
I1
sI3534
I1
sI787
I1
sI2542
I1
sI3639
I1
sI2202
I1
sI765
I1
sa(dp254
I4096
I1
sI1323
I1
sI3590
I1
sI2439
I1
sI4361
I1
sI5013
I1
sI3866
I1
sI411
I1
sI2334
I1
sI2977
I1
sI1798
I1
sI40
I1
sI5033
I1
sI1962
I1
sI4359
I1
sI3507
I1
sI3509
I1
sI3511
I1
sI3512
I1
sI4848
I1
sI4926
I1
sI2240
I1
sI1611
I1
sI2141
I1
sI3295
I1
sI4066
I1
sI4067
I1
sI3941
I1
sI3558
I1
sI3559
I1
sI4970
I1
sI1901
I1
sI3823
I1
sI3440
I1
sI2428
I1
sa(dp255
I2309
I1
sI2310
I1
sI4565
I1
sI4115
I1
sI3988
I1
sI4251
I1
sI4127
I1
sI4102
I1
sI1787
I1
sI2345
I1
sI2346
I1
sI171
I1
sI172
I1
sI3514
I1
sI4068
I1
sI4798
I1
sI2239
I1
sI3808
I1
sI1987
I1
sI1354
I1
sI4555
I1
sI4047
I1
sI2003
I1
sI85
I1
sI3417
I1
sI3807
I1
sI1376
I1
sI3937
I1
sI4859
I1
sI1508
I1
sI4326
I1
sI2152
I1
sI3435
I1
sI1004
I1
sI114
I1
sI2196
I1
sI3071
I1
sI253
I1
sI4351
I1
sa(dp256
I577
I1
sI1860
I1
sI3997
I1
sa(dp257
I427
I1
sI3080
I1
sI1532
I1
sI1355
I1
sI1820
I1
sI1534
I1
sa(dp258
I2501
I1
sI4041
I1
sI2762
I1
sI1687
I1
sI4024
I1
sI1524
I1
sI215
I1
sI1816
I1
sI4285
I1
sI4895
I1
sa(dp259
I2689
I1
sI2050
I1
sI1187
I1
sI1188
I1
sI2021
I1
sI2401
I1
sI2402
I1
sI4525
I1
sI1778
I1
sI2163
I1
sI2132
I1
sI1715
I1
sI2232
I1
sI1716
I1
sI1746
I1
sI5028
I1
sI2813
I1
sI1717
I1
sa(dp260
I3041
I1
sI2980
I1
sI878
I1
sa(dp261
I4769
I1
sI2851
I1
sI2437
I1
sI3174
I1
sI2215
I1
sI586
I1
sI3467
I1
sI2830
I1
sI2553
I1
sI2424
I1
sI2713
I1
sI1882
I1
sI3038
I1
sa(dp262
I4309
I1
sI3715
I1
sI3684
I1
sI1446
I1
sI3657
I1
sI4522
I1
sI3691
I1
sI3660
I1
sI4175
I1
sI2800
I1
sI4467
I1
sI4181
I1
sI4182
I1
sI4255
I1
sI3742
I1
sI3647
I1
sa(dp263
I4480
I1
sI4490
I1
sI2390
I1
sa(dp264
I2681
I1
sI2186
I1
sI4107
I1
sI2937
I1
sI2963
I1
sI1557
I1
sI1943
I1
sI666
I1
sI800
I1
sI2212
I1
sI3750
I1
sI4903
I1
sI3880
I1
sI1321
I1
sI4396
I1
sI45
I1
sI4911
I1
sI2097
I1
sI311
I1
sI444
I1
sI3979
I1
sI2372
I1
sI2296
I1
sI1748
I1
sI4345
I1
sI4004
I1
sI1807
I1
sI3040
I1
sI3298
I1
sI3707
I1
sI911
I1
sI1639
I1
sI2922
I1
sI3185
I1
sI2676
I1
sI3448
I1
sI3577
I1
sI3451
I1
sI2154
I1
sI4862
I1
sI4757
I1
sa(dp265
I3922
I1
sI4963
I1
sa(dp266
I1505
I1
sI1838
I1
sI1181
I1
sI1524
I1
sI1686
I1
sI920
I1
sI2809
I1
sI1180
I1
sI1117
I1
sI2878
I1
sa(dp267
I944
I1
sI920
I1
sI922
I1
sa(dp268
I672
I1
sI547
I1
sI4818
I1
sI4686
I1
sI2256
I1
sI178
I1
sI4405
I1
sI4377
I1
sa(dp269
I2256
I1
sI4377
I1
sI178
I1
sI2204
I1
sI4405
I1
sa(dp270
I4544
I1
sI4994
I1
sI4714
I1
sI4151
I1
sI4541
I1
sI4176
I1
sI4177
I1
sI3319
I1
sI4537
I1
sI4538
I1
sI4539
I1
sI4540
I1
sI4554
I1
sI4958
I1
sI4543
I1
sa(dp271
I3075
I1
sI3076
I1
sI3045
I1
sI3046
I1
sI3017
I1
sI3018
I1
sI1171
I1
sI4067
I1
sI1566
I1
sI3077
I1
sa(dp272
I257
I1
sI4489
I1
sI781
I1
sI1808
I1
sI3857
I1
sI1863
I1
sI1043
I1
sI3606
I1
sI279
I1
sI24
I1
sI4763
I1
sI418
I1
sI168
I1
sI4137
I1
sI1834
I1
sI4523
I1
sI301
I1
sI4839
I1
sI4534
I1
sI189
I1
sI1598
I1
sI320
I1
sI5046
I1
sI2247
I1
sI4983
I1
sI716
I1
sI4813
I1
sI4173
I1
sI344
I1
sI2012
I1
sI1757
I1
sI2275
I1
sI3431
I1
sI4715
I1
sI2158
I1
sI4221
I1
sI3831
I1
sI4573
I1
sI3709
I1
sI3583
I1
sa(dp273
I257
I1
sI260
I1
sI3201
I1
sI1800
I1
sI4873
I1
sI2698
I1
sI779
I1
sI4366
I1
sI144
I1
sI3345
I1
sI3730
I1
sI3731
I1
sI279
I1
sI2713
I1
sI4199
I1
sI4892
I1
sI1694
I1
sI1695
I1
sI166
I1
sI5031
I1
sI1833
I1
sI4010
I1
sI428
I1
sI3375
I1
sI4268
I1
sI3508
I1
sI3509
I1
sI311
I1
sI184
I1
sI3002
I1
sI189
I1
sI1086
I1
sI320
I1
sI3467
I1
sI716
I1
sI333
I1
sI4185
I1
sI2269
I1
sI357
I1
sI99
I1
sI3045
I1
sI358
I1
sI3559
I1
sI2667
I1
sI3507
I1
sI3729
I1
sa(dp274
I2312
I1
sI1709
I1
sa(dp275
I3588
I1
sI2710
I1
sI3719
I1
sI2455
I1
sI2572
I1
sI2573
I1
sI2960
I1
sI2961
I1
sI2454
I1
sI3735
I1
sI3247
I1
sI1309
I1
sI3998
I1
sI1439
I1
sI1440
I1
sI2081
I1
sI3492
I1
sI817
I1
sI2728
I1
sI2729
I1
sI3079
I1
sI3246
I1
sI2607
I1
sI4912
I1
sI1457
I1
sI1438
I1
sI2103
I1
sI2489
I1
sI3008
I1
sI2251
I1
sI841
I1
sI842
I1
sI843
I1
sI2636
I1
sI2637
I1
sI2638
I1
sI3280
I1
sI4561
I1
sI2391
I1
sI472
I1
sI3546
I1
sI2782
I1
sI4449
I1
sI2663
I1
sI4456
I1
sI1385
I1
sI1644
I1
sa(dp276
I4291
I1
sI2351
I1
sI2357
I1
sI4246
I1
sI4663
I1
sI1469
I1
sa(dp277
I3192
I1
sI2449
I1
sI4693
I1
sI1823
I1
sa(dp278
I612
I1
sa(dp279
I1668
I1
sI911
I1
sI3313
I1
sI3800
I1
sI3322
I1
sI415
I1
sa(dp280
I2187
I1
sI4189
I1
sI3768
I1
sI3800
I1
sI187
I1
sI4381
I1
sa(dp281
I384
I1
sI3209
I1
sI3210
I1
sI1806
I1
sI3478
I1
sI3867
I1
sI3868
I1
sI3526
I1
sI3886
I1
sI3887
I1
sI4530
I1
sI5044
I1
sI567
I1
sI4025
I1
sI571
I1
sI4981
I1
sI3649
I1
sI3654
I1
sI2120
I1
sI590
I1
sI3155
I1
sI3924
I1
sI3925
I1
sI4857
I1
sI1637
I1
sI1638
I1
sI1130
I1
sI1131
I1
sI4597
I1
sI2038
I1
sI3703
I1
sI1017
I1
sa(dp282
I4482
I1
sI4987
I1
sI5028
I1
sI4645
I1
sI4646
I1
sI4743
I1
sI40
I1
sI4969
I1
sI4778
I1
sI140
I1
sI4337
I1
sI5013
I1
sI375
I1
sI1272
I1
sI4986
I1
sI3825
I1
sI4892
I1
sI4794
I1
sI1726
I1
sa(dp283
I1057
I1
sI1762
I1
sI1763
I1
sI4973
I1
sI1878
I1
sI1847
I1
sI1368
I1
sI4316
I1
sa(dp284
I2318
I1
sI2962
I1
sI2579
I1
sI4762
I1
sI4764
I1
sI4765
I1
sI2604
I1
sI2605
I1
sI1077
I1
sI951
I1
sI1722
I1
sI2121
I1
sI2635
I1
sI2381
I1
sI1230
I1
sI2261
I1
sI2781
I1
sI2398
I1
sI1998
I1
sI1515
I1
sI4720
I1
sI2929
I1
sI2930
I1
sI1268
I1
sI2422
I1
sI2295
I1
sI2296
I1
sI1278
I1
sI1279
I1
sa(dp285
I4193
I1
sI4195
I1
sI4457
I1
sa(dp286
I4096
I1
sI2181
I1
sI3590
I1
sI2439
I1
sI3592
I1
sI4361
I1
sI3866
I1
sI411
I1
sI3614
I1
sI4848
I1
sI1798
I1
sI40
I1
sI5033
I1
sI1962
I1
sI3509
I1
sI3511
I1
sI4926
I1
sI2334
I1
sI1367
I1
sI2140
I1
sI2141
I1
sI4067
I1
sI3557
I1
sI3559
I1
sI3823
I1
sI3440
I1
sa(dp287
I4355
I1
sI1669
I1
sI4199
I1
sI2667
I1
sI4460
I1
sI2287
I1
sI4050
I1
sI1699
I1
sI1847
I1
sI1368
I1
sI4167
I1
sI4094
I1
sa(dp288
I2710
I1
sI3719
I1
sI2572
I1
sI2573
I1
sI2960
I1
sI2961
I1
sI2606
I1
sI2454
I1
sI2455
I1
sI1309
I1
sI1438
I1
sI1439
I1
sI1440
I1
sI2081
I1
sI3111
I1
sI2728
I1
sI2729
I1
sI2730
I1
sI3079
I1
sI3246
I1
sI2607
I1
sI4912
I1
sI1457
I1
sI2103
I1
sI2489
I1
sI843
I1
sI2638
I1
sI3280
I1
sI4561
I1
sI3282
I1
sI472
I1
sI2782
I1
sI4449
I1
sI2663
I1
sI1385
I1
sI1644
I1
sa(dp289
I705
I1
sI3716
I1
sI1235
I1
sI4975
I1
sI2035
I1
sI2739
I1
sI1466
I1
sI3898
I1
sa(dp290
I2051
I1
sI2574
I1
sI2959
I1
sI4119
I1
sI2543
I1
sI3106
I1
sI3107
I1
sI3108
I1
sI2853
I1
sI2993
I1
sI2610
I1
sI3739
I1
sI3257
I1
sI3645
I1
sI2496
I1
sI3404
I1
sI3020
I1
sI3405
I1
sI3021
I1
sI2515
I1
sI2516
I1
sI2389
I1
sI90
I1
sI4831
I1
sI2662
I1
sI3432
I1
sI2538
I1
sI3133
I1
sI3315
I1
sI3191
I1
sI3192
I1
sI2425
I1
sI2517
I1
sa(dp291
I4312
I1
sI4490
I1
sI4076
I1
sI2390
I1
sa(dp292
I834
I1
sI835
I1
sI1574
I1
sI934
I1
sI1575
I1
sI935
I1
sI4151
I1
sa(dp293
I4230
I1
sI4231
I1
sI1162
I1
sI1163
I1
sI1164
I1
sI5006
I1
sI409
I1
sI1561
I1
sI1052
I1
sI1053
I1
sI1439
I1
sI1185
I1
sI1073
I1
sI562
I1
sI2227
I1
sI949
I1
sI3190
I1
sI2758
I1
sI1992
I1
sI970
I1
sI1232
I1
sI987
I1
sI1383
I1
sI1384
I1
sI1398
I1
sa(dp294
I2176
I1
sI4352
I1
sI1137
I1
sI1161
I1
sI4172
I1
sI2194
I1
sI4144
I1
sI1233
I1
sI306
I1
sI4115
I1
sI1876
I1
sI85
I1
sI118
I1
sI2107
I1
sI1375
I1
sa(lp295
I0
aI1
aI2
aI3
aI4
aI5
aI6
aI7
aI8
aI9
aI10
aI11
aI12
aI13
aI14
aI15
aI16
aI17
aI18
aI19
aI20
aI21
aI22
aI23
aI24
aI25
aI26
aI27
aI28
aI29
aI30
aI31
aI32
aI33
aI51
aI52
aI53
aI54
aI55
aI56
aI57
aI58
aI59
aI60
aI61
aI62
aI63
aI64
aI65
aI66
aI67
aI68
aI69
aI70
aI71
aI72
aI73
aI74
aI75
aI76
aI77
aI78
aI79
aI80
aI81
aI82
aI83
aI84
aI85
aI86
aI87
aI88
aI89
aI90
aI91
aI92
aI93
aI94
aI95
aI96
aI97
aI98
aI99
aI100
aI101
aI102
aI103
aI104
aI105
aI106
aI107
aI108
aI109
aI110
aI111
aI112
aI113
aI114
aI115
aI116
aI117
aI118
aI119
aI120
aI121
aI122
aI123
aI124
aI125
aI126
aI127
aI128
aI129
aI130
aI131
aI132
aI133
aI134
aI135
aI136
aI137
aI138
aI139
aI140
aI141
aI142
aI143
aI144
aI145
aI146
aI147
aI148
aI149
aI150
aI151
aI152
aI153
aI154
aI155
aI156
aI157
aI158
aI159
aI160
aI161
aI162
at.